target datalayout = "e-m:e-p270:32:32-p271:32:32-p272:64:64-i64:64-i128:128-f80:128-n8:16:32:64-S128"
target triple = "x86_64-unknown-linux-gnu"

%"class.std::__cxx11::basic_string" = type { %"struct.std::__cxx11::basic_string<char>::_Alloc_hider", i64, %union.anon }
%"struct.std::__cxx11::basic_string<char>::_Alloc_hider" = type { ptr }
%union.anon = type { i64, [8 x i8] }
%"class.pbrt::TextureMapping2D" = type { %"class.pbrt::TaggedPointer" }
%"class.pbrt::TaggedPointer" = type { i64 }
%"class.pbrt::ImageTextureBase" = type { %"class.pbrt::TextureMapping2D", %"class.std::__cxx11::basic_string", float, i8, ptr }

@.str.48 = private unnamed_addr constant [82 x i8] c"[ SpectrumImageTexture filename: %s mapping: %s scale: %f invert: %s mipmap: %s ]\00", align 1

; Function Attrs: mustprogress uwtable
define linkonce_odr dso_local void @_ZN4pbrt12StringPrintfIJRKNSt7__cxx1112basic_stringIcSt11char_traitsIcESaIcEEERKNS_16TextureMapping2DERKfRKbRNS_6MIPMapEEEES6_PKcDpOT_(ptr noalias sret(%"class.std::__cxx11::basic_string") align 8 %agg.result, ptr noundef %fmt, ptr noundef nonnull align 8 dereferenceable(32) %args, ptr noundef nonnull align 8 dereferenceable(8) %args1, ptr noundef nonnull align 4 dereferenceable(4) %args3, ptr noundef nonnull align 1 dereferenceable(1) %args5, ptr noundef nonnull align 8 dereferenceable(52) %args7) #1 comdat personality ptr @__gxx_personality_v0 {
entry:
  %result.ptr = alloca ptr, align 8
  %fmt.addr = alloca ptr, align 8
  %args.addr = alloca ptr, align 8
  %args.addr2 = alloca ptr, align 8
  %args.addr4 = alloca ptr, align 8
  %args.addr6 = alloca ptr, align 8
  %args.addr8 = alloca ptr, align 8
  %nrvo = alloca i1, align 1
  %exn.slot = alloca ptr, align 8
  %ehselector.slot = alloca i32, align 4
  store ptr %agg.result, ptr %result.ptr, align 8
  store ptr %fmt, ptr %fmt.addr, align 8
  store ptr %args, ptr %args.addr, align 8
  store ptr %args1, ptr %args.addr2, align 8
  store ptr %args3, ptr %args.addr4, align 8
  store ptr %args5, ptr %args.addr6, align 8
  store ptr %args7, ptr %args.addr8, align 8
  store i1 false, ptr %nrvo, align 1
  call void @_ZNSt7__cxx1112basic_stringIcSt11char_traitsIcESaIcEEC1Ev(ptr noundef nonnull align 8 dereferenceable(32) %agg.result) #9
  %0 = load ptr, ptr %fmt.addr, align 8
  %1 = load ptr, ptr %args.addr, align 8
  %2 = load ptr, ptr %args.addr2, align 8
  %3 = load ptr, ptr %args.addr4, align 8
  %4 = load ptr, ptr %args.addr6, align 8
  %5 = load ptr, ptr %args.addr8, align 8
  invoke void @_ZN4pbrt6detail21stringPrintfRecursiveIRKNSt7__cxx1112basic_stringIcSt11char_traitsIcESaIcEEEJRKNS_16TextureMapping2DERKfRKbRNS_6MIPMapEEEEvPS7_PKcOT_DpOT0_(ptr noundef %agg.result, ptr noundef %0, ptr noundef nonnull align 8 dereferenceable(32) %1, ptr noundef nonnull align 8 dereferenceable(8) %2, ptr noundef nonnull align 4 dereferenceable(4) %3, ptr noundef nonnull align 1 dereferenceable(1) %4, ptr noundef nonnull align 8 dereferenceable(52) %5)
          to label %invoke.cont unwind label %lpad

invoke.cont:                                      ; preds = %entry
  store i1 true, ptr %nrvo, align 1
  %nrvo.val = load i1, ptr %nrvo, align 1
  br i1 %nrvo.val, label %nrvo.skipdtor, label %nrvo.unused

lpad:                                             ; preds = %entry
  %6 = landingpad { ptr, i32 }
          cleanup
  %7 = extractvalue { ptr, i32 } %6, 0
  store ptr %7, ptr %exn.slot, align 8
  %8 = extractvalue { ptr, i32 } %6, 1
  store i32 %8, ptr %ehselector.slot, align 4
  call void @_ZNSt7__cxx1112basic_stringIcSt11char_traitsIcESaIcEED1Ev(ptr noundef nonnull align 8 dereferenceable(32) %agg.result) #9
  br label %eh.resume

nrvo.unused:                                      ; preds = %invoke.cont
  call void @_ZNSt7__cxx1112basic_stringIcSt11char_traitsIcESaIcEED1Ev(ptr noundef nonnull align 8 dereferenceable(32) %agg.result) #9
  br label %nrvo.skipdtor

nrvo.skipdtor:                                    ; preds = %nrvo.unused, %invoke.cont
  ret void

eh.resume:                                        ; preds = %lpad
  %exn = load ptr, ptr %exn.slot, align 8
  %sel = load i32, ptr %ehselector.slot, align 4
  %lpad.val = insertvalue { ptr, i32 } poison, ptr %exn, 0
  %lpad.val9 = insertvalue { ptr, i32 } %lpad.val, i32 %sel, 1
  resume { ptr, i32 } %lpad.val9
}

; Function Attrs: mustprogress uwtable
define dso_local void @_ZNK4pbrt20SpectrumImageTexture8ToStringB5cxx11Ev(ptr noalias sret(%"class.std::__cxx11::basic_string") align 8 %agg.result, ptr noundef nonnull align 8 dereferenceable(60) %this) #1 align 2 {
entry:
  %result.ptr = alloca ptr, align 8
  %this.addr = alloca ptr, align 8
  store ptr %agg.result, ptr %result.ptr, align 8
  store ptr %this, ptr %this.addr, align 8
  %this1 = load ptr, ptr %this.addr, align 8
  %filename = getelementptr inbounds %"class.pbrt::ImageTextureBase", ptr %this1, i32 0, i32 1
  %mapping = getelementptr inbounds %"class.pbrt::ImageTextureBase", ptr %this1, i32 0, i32 0
  %scale = getelementptr inbounds %"class.pbrt::ImageTextureBase", ptr %this1, i32 0, i32 2
  %invert = getelementptr inbounds %"class.pbrt::ImageTextureBase", ptr %this1, i32 0, i32 3
  %mipmap = getelementptr inbounds %"class.pbrt::ImageTextureBase", ptr %this1, i32 0, i32 4
  %0 = load ptr, ptr %mipmap, align 8
  call void @_ZN4pbrt12StringPrintfIJRKNSt7__cxx1112basic_stringIcSt11char_traitsIcESaIcEEERKNS_16TextureMapping2DERKfRKbRNS_6MIPMapEEEES6_PKcDpOT_(ptr sret(%"class.std::__cxx11::basic_string") align 8 %agg.result, ptr noundef @.str.48, ptr noundef nonnull align 8 dereferenceable(32) %filename, ptr noundef nonnull align 8 dereferenceable(8) %mapping, ptr noundef nonnull align 4 dereferenceable(4) %scale, ptr noundef nonnull align 1 dereferenceable(1) %invert, ptr noundef nonnull align 8 dereferenceable(52) %0)
  ret void
}